; Function Attrs: nounwind uwtable
define nonnull ptr @l_Nat_decidable__dvd___boxed(ptr noundef %0, ptr noundef %1) local_unnamed_addr #0 {
  %3 = ptrtoint ptr %1 to i64
  %4 = and i64 %3, 1
  %.not.i5.i = icmp eq i64 %4, 0
  br i1 %.not.i5.i, label %.critedge.i6.i, label %5, !prof !4

5:                                                ; preds = %2
  %6 = ptrtoint ptr %0 to i64
  %7 = and i64 %6, 1
  %.not11.i.i = icmp eq i64 %7, 0
  br i1 %.not11.i.i, label %.critedge.i6.i, label %8, !prof !4

8:                                                ; preds = %5
  %9 = icmp ult ptr %0, inttoptr (i64 2 to ptr)
  br i1 %9, label %lean_nat_mod.exit.i, label %10

10:                                               ; preds = %8
  %11 = lshr i64 %3, 1
  %12 = lshr i64 %6, 1
  %13 = urem i64 %11, %12
  %14 = shl nuw i64 %13, 1
  %15 = or disjoint i64 %14, 1
  %16 = inttoptr i64 %15 to ptr
  br label %lean_nat_mod.exit.i

.critedge.i6.i:                                   ; preds = %5, %2
  %17 = tail call ptr @lean_nat_big_mod(ptr noundef %1, ptr noundef %0) #3
  br label %lean_nat_mod.exit.i

lean_nat_mod.exit.i:                              ; preds = %.critedge.i6.i, %10, %8
  %.1.i.i = phi ptr [ %17, %.critedge.i6.i ], [ %16, %10 ], [ %1, %8 ]
  %18 = ptrtoint ptr %.1.i.i to i64
  %19 = and i64 %18, 1
  %.not.i8 = icmp eq i64 %19, 0
  br i1 %.not.i8, label %21, label %lean_nat_eq.exit.thread.i, !prof !4

lean_nat_eq.exit.thread.i:                        ; preds = %lean_nat_mod.exit.i
  %20 = icmp eq ptr %.1.i.i, inttoptr (i64 1 to ptr)
  br label %l_Nat_decidable__dvd.exit

21:                                               ; preds = %lean_nat_mod.exit.i
  %22 = tail call zeroext i1 @lean_nat_big_eq(ptr noundef %.1.i.i, ptr noundef nonnull inttoptr (i64 1 to ptr)) #3
  %23 = load i32, ptr %.1.i.i, align 4, !tbaa !5
  %24 = icmp sgt i32 %23, 1
  br i1 %24, label %25, label %27, !prof !10

25:                                               ; preds = %21
  %26 = add nsw i32 %23, -1
  store i32 %26, ptr %.1.i.i, align 4, !tbaa !5
  br label %l_Nat_decidable__dvd.exit

27:                                               ; preds = %21
  %.not.i.i = icmp eq i32 %23, 0
  br i1 %.not.i.i, label %l_Nat_decidable__dvd.exit, label %28

28:                                               ; preds = %27
  tail call void @lean_dec_ref_cold(ptr noundef nonnull %.1.i.i) #3
  br label %l_Nat_decidable__dvd.exit

l_Nat_decidable__dvd.exit:                        ; preds = %lean_nat_eq.exit.thread.i, %25, %27, %28
  %.in.i = phi i1 [ %20, %lean_nat_eq.exit.thread.i ], [ %22, %25 ], [ %22, %27 ], [ %22, %28 ]
  br i1 %.not.i5.i, label %29, label %lean_dec.exit5

29:                                               ; preds = %l_Nat_decidable__dvd.exit
  %30 = load i32, ptr %1, align 4, !tbaa !5
  %31 = icmp sgt i32 %30, 1
  br i1 %31, label %32, label %34, !prof !10

32:                                               ; preds = %29
  %33 = add nsw i32 %30, -1
  store i32 %33, ptr %1, align 4, !tbaa !5
  br label %lean_dec.exit5

34:                                               ; preds = %29
  %.not.i = icmp eq i32 %30, 0
  br i1 %.not.i, label %lean_dec.exit5, label %35

35:                                               ; preds = %34
  tail call void @lean_dec_ref_cold(ptr noundef nonnull %1) #3
  br label %lean_dec.exit5

lean_dec.exit5:                                   ; preds = %35, %34, %32, %l_Nat_decidable__dvd.exit
  %36 = ptrtoint ptr %0 to i64
  %37 = and i64 %36, 1
  %.not9 = icmp eq i64 %37, 0
  br i1 %.not9, label %38, label %lean_dec.exit

38:                                               ; preds = %lean_dec.exit5
  %39 = load i32, ptr %0, align 4, !tbaa !5
  %40 = icmp sgt i32 %39, 1
  br i1 %40, label %41, label %43, !prof !10

41:                                               ; preds = %38
  %42 = add nsw i32 %39, -1
  store i32 %42, ptr %0, align 4, !tbaa !5
  br label %lean_dec.exit

43:                                               ; preds = %38
  %.not.i6 = icmp eq i32 %39, 0
  br i1 %.not.i6, label %lean_dec.exit, label %44

44:                                               ; preds = %43
  tail call void @lean_dec_ref_cold(ptr noundef nonnull %0) #3
  br label %lean_dec.exit

lean_dec.exit:                                    ; preds = %44, %43, %41, %lean_dec.exit5
  %45 = select i1 %.in.i, ptr inttoptr (i64 3 to ptr), ptr inttoptr (i64 1 to ptr)
  ret ptr %45
}